target datalayout = "e-m:e-p270:32:32-p271:32:32-p272:64:64-i64:64-i128:128-f80:128-n8:16:32:64-S128"
target triple = "x86_64-pc-linux-gnu"

%struct.H5T_t = type { %struct.H5O_shared_t, ptr, %struct.H5O_loc_t, %struct.H5G_name_t, ptr }
%struct.H5O_shared_t = type { i32, ptr, i32, %union.anon }
%union.anon = type { %struct.H5O_mesg_loc_t }
%struct.H5O_mesg_loc_t = type { i32, i64 }
%struct.H5O_loc_t = type { ptr, i64, i8 }
%struct.H5G_name_t = type { ptr, ptr, i32 }
%struct.H5T_shared_t = type { i64, i32, i32, i64, i32, i8, ptr, ptr, %union.anon.0 }
%union.anon.0 = type { %struct.H5T_array_t }
%struct.H5T_array_t = type { i64, i32, [32 x i64] }
%struct.H5T_atomic_t = type { i32, i64, i64, i32, i32, %union.anon.1 }
%union.anon.1 = type { %struct.anon.2 }
%struct.anon.2 = type { i64, i64, i64, i64, i64, i64, i32, i32 }
%struct.H5T_compnd_t = type { i32, i32, i32, i8, ptr, i64 }
%struct.H5T_cmemb_t = type { ptr, i64, i64, ptr }

@.str = private unnamed_addr constant [102 x i8] c"generated/home/dtcxzyw/WorkSpace/Projects/compilers/llvm-opt-benchmark/bench/hdf5/hdf5/src/H5Torder.c\00", align 1
@H5E_DATATYPE_g = external global i64, align 8
@H5E_BADTYPE_g = external global i64, align 8
@__func__.H5T_get_order = private unnamed_addr constant [14 x i8] c"H5T_get_order\00", align 1
@H5E_ARGS_g = external global i64, align 8
@.str.5 = private unnamed_addr constant [52 x i8] c"can't get number of members from compound data type\00", align 1
@H5E_CANTGET_g = external global i64, align 8
@.str.6 = private unnamed_addr constant [36 x i8] c"can't get order for compound member\00", align 1

; Function Attrs: nounwind uwtable
define i32 @H5T_get_order(ptr noundef %0) #0 {
  %2 = alloca ptr, align 8
  %3 = alloca i32, align 4
  %4 = alloca i8, align 1
  %5 = alloca i32, align 4
  %6 = alloca i32, align 4
  %7 = alloca i32, align 4
  store ptr %0, ptr %2, align 8
  store i32 4, ptr %3, align 4
  store i8 0, ptr %4, align 1
  br label %8

8:                                                ; preds = %15, %1
  %9 = load ptr, ptr %2, align 8
  %10 = getelementptr inbounds %struct.H5T_t, ptr %9, i32 0, i32 1
  %11 = load ptr, ptr %10, align 8
  %12 = getelementptr inbounds %struct.H5T_shared_t, ptr %11, i32 0, i32 6
  %13 = load ptr, ptr %12, align 8
  %14 = icmp ne ptr %13, null
  br i1 %14, label %15, label %21

15:                                               ; preds = %8
  %16 = load ptr, ptr %2, align 8
  %17 = getelementptr inbounds %struct.H5T_t, ptr %16, i32 0, i32 1
  %18 = load ptr, ptr %17, align 8
  %19 = getelementptr inbounds %struct.H5T_shared_t, ptr %18, i32 0, i32 6
  %20 = load ptr, ptr %19, align 8
  store ptr %20, ptr %2, align 8
  br label %8

21:                                               ; preds = %8
  %22 = load ptr, ptr %2, align 8
  %23 = getelementptr inbounds %struct.H5T_t, ptr %22, i32 0, i32 1
  %24 = load ptr, ptr %23, align 8
  %25 = getelementptr inbounds %struct.H5T_shared_t, ptr %24, i32 0, i32 2
  %26 = load i32, ptr %25, align 4
  %27 = icmp eq i32 %26, 6
  br i1 %27, label %70, label %28

28:                                               ; preds = %21
  %29 = load ptr, ptr %2, align 8
  %30 = getelementptr inbounds %struct.H5T_t, ptr %29, i32 0, i32 1
  %31 = load ptr, ptr %30, align 8
  %32 = getelementptr inbounds %struct.H5T_shared_t, ptr %31, i32 0, i32 2
  %33 = load i32, ptr %32, align 4
  %34 = icmp eq i32 %33, 8
  br i1 %34, label %70, label %35

35:                                               ; preds = %28
  %36 = load ptr, ptr %2, align 8
  %37 = getelementptr inbounds %struct.H5T_t, ptr %36, i32 0, i32 1
  %38 = load ptr, ptr %37, align 8
  %39 = getelementptr inbounds %struct.H5T_shared_t, ptr %38, i32 0, i32 2
  %40 = load i32, ptr %39, align 4
  %41 = icmp eq i32 %40, 9
  br i1 %41, label %70, label %42

42:                                               ; preds = %35
  %43 = load ptr, ptr %2, align 8
  %44 = getelementptr inbounds %struct.H5T_t, ptr %43, i32 0, i32 1
  %45 = load ptr, ptr %44, align 8
  %46 = getelementptr inbounds %struct.H5T_shared_t, ptr %45, i32 0, i32 2
  %47 = load i32, ptr %46, align 4
  %48 = icmp eq i32 %47, 10
  br i1 %48, label %70, label %49

49:                                               ; preds = %42
  %50 = load ptr, ptr %2, align 8
  %51 = getelementptr inbounds %struct.H5T_t, ptr %50, i32 0, i32 1
  %52 = load ptr, ptr %51, align 8
  %53 = getelementptr inbounds %struct.H5T_shared_t, ptr %52, i32 0, i32 2
  %54 = load i32, ptr %53, align 4
  %55 = icmp eq i32 %54, 7
  br i1 %55, label %70, label %56

56:                                               ; preds = %49
  %57 = load ptr, ptr %2, align 8
  %58 = getelementptr inbounds %struct.H5T_t, ptr %57, i32 0, i32 1
  %59 = load ptr, ptr %58, align 8
  %60 = getelementptr inbounds %struct.H5T_shared_t, ptr %59, i32 0, i32 2
  %61 = load i32, ptr %60, align 4
  %62 = icmp eq i32 %61, 5
  br i1 %62, label %70, label %63

63:                                               ; preds = %56
  %64 = load ptr, ptr %2, align 8
  %65 = getelementptr inbounds %struct.H5T_t, ptr %64, i32 0, i32 1
  %66 = load ptr, ptr %65, align 8
  %67 = getelementptr inbounds %struct.H5T_shared_t, ptr %66, i32 0, i32 8
  %68 = getelementptr inbounds %struct.H5T_atomic_t, ptr %67, i32 0, i32 0
  %69 = load i32, ptr %68, align 8
  store i32 %69, ptr %3, align 4
  br label %155

70:                                               ; preds = %56, %49, %42, %35, %28, %21
  %71 = load ptr, ptr %2, align 8
  %72 = getelementptr inbounds %struct.H5T_t, ptr %71, i32 0, i32 1
  %73 = load ptr, ptr %72, align 8
  %74 = getelementptr inbounds %struct.H5T_shared_t, ptr %73, i32 0, i32 2
  %75 = load i32, ptr %74, align 4
  %76 = icmp eq i32 6, %75
  br i1 %76, label %77, label %154

77:                                               ; preds = %70
  store i32 4, ptr %5, align 4
  %78 = load ptr, ptr %2, align 8
  %79 = call i32 @H5T_get_nmembers(ptr noundef %78)
  store i32 %79, ptr %6, align 4
  %80 = icmp slt i32 %79, 0
  br i1 %80, label %81, label %96

81:                                               ; preds = %77
  br label %82

82:                                               ; preds = %81
  br label %83

83:                                               ; preds = %82
  br label %84

84:                                               ; preds = %83
  %85 = load i64, ptr @H5E_ARGS_g, align 8
  %86 = load i64, ptr @H5E_BADTYPE_g, align 8
  %87 = call i32 (ptr, ptr, i32, i64, i64, ptr, ...) @H5E_printf_stack(ptr noundef @.str, ptr noundef @__func__.H5T_get_order, i32 noundef 131, i64 noundef %85, i64 noundef %86, ptr noundef @.str.5)
  br label %88

88:                                               ; preds = %84
  store i8 1, ptr %4, align 1
  %89 = load i8, ptr %4, align 1
  %90 = trunc i8 %89 to i1
  %91 = zext i1 %90 to i8
  store i8 %91, ptr %4, align 1
  br label %92

92:                                               ; preds = %88
  br label %93

93:                                               ; preds = %92
  store i32 -1, ptr %3, align 4
  br label %156

94:                                               ; No predecessors!
  br label %95

95:                                               ; preds = %94
  br label %96

96:                                               ; preds = %95, %77
  store i32 0, ptr %7, align 4
  br label %97

97:                                               ; preds = %150, %96
  %98 = load i32, ptr %7, align 4
  %99 = load i32, ptr %6, align 4
  %100 = icmp slt i32 %98, %99
  br i1 %100, label %101, label %153

101:                                              ; preds = %97
  %102 = load ptr, ptr %2, align 8
  %103 = getelementptr inbounds %struct.H5T_t, ptr %102, i32 0, i32 1
  %104 = load ptr, ptr %103, align 8
  %105 = getelementptr inbounds %struct.H5T_shared_t, ptr %104, i32 0, i32 8
  %106 = getelementptr inbounds %struct.H5T_compnd_t, ptr %105, i32 0, i32 4
  %107 = load ptr, ptr %106, align 8
  %108 = load i32, ptr %7, align 4
  %109 = sext i32 %108 to i64
  %110 = getelementptr inbounds %struct.H5T_cmemb_t, ptr %107, i64 %109
  %111 = getelementptr inbounds %struct.H5T_cmemb_t, ptr %110, i32 0, i32 3
  %112 = load ptr, ptr %111, align 8
  %113 = call i32 @H5T_get_order(ptr noundef %112)
  store i32 %113, ptr %5, align 4
  %114 = icmp eq i32 %113, -1
  br i1 %114, label %115, label %130

115:                                              ; preds = %101
  br label %116

116:                                              ; preds = %115
  br label %117

117:                                              ; preds = %116
  br label %118

118:                                              ; preds = %117
  %119 = load i64, ptr @H5E_DATATYPE_g, align 8
  %120 = load i64, ptr @H5E_CANTGET_g, align 8
  %121 = call i32 (ptr, ptr, i32, i64, i64, ptr, ...) @H5E_printf_stack(ptr noundef @.str, ptr noundef @__func__.H5T_get_order, i32 noundef 138, i64 noundef %119, i64 noundef %120, ptr noundef @.str.6)
  br label %122

122:                                              ; preds = %118
  store i8 1, ptr %4, align 1
  %123 = load i8, ptr %4, align 1
  %124 = trunc i8 %123 to i1
  %125 = zext i1 %124 to i8
  store i8 %125, ptr %4, align 1
  br label %126

126:                                              ; preds = %122
  br label %127

127:                                              ; preds = %126
  store i32 -1, ptr %3, align 4
  br label %156

128:                                              ; No predecessors!
  br label %129

129:                                              ; preds = %128
  br label %130

130:                                              ; preds = %129, %101
  %131 = load i32, ptr %5, align 4
  %132 = icmp ne i32 %131, 4
  br i1 %132, label %133, label %138

133:                                              ; preds = %130
  %134 = load i32, ptr %3, align 4
  %135 = icmp eq i32 %134, 4
  br i1 %135, label %136, label %138

136:                                              ; preds = %133
  %137 = load i32, ptr %5, align 4
  store i32 %137, ptr %3, align 4
  br label %138

138:                                              ; preds = %136, %133, %130
  %139 = load i32, ptr %5, align 4
  %140 = icmp ne i32 %139, 4
  br i1 %140, label %141, label %149

141:                                              ; preds = %138
  %142 = load i32, ptr %3, align 4
  %143 = icmp ne i32 %142, 4
  br i1 %143, label %144, label %149

144:                                              ; preds = %141
  %145 = load i32, ptr %5, align 4
  %146 = load i32, ptr %3, align 4
  %147 = icmp ne i32 %145, %146
  br i1 %147, label %148, label %149

148:                                              ; preds = %144
  store i32 3, ptr %3, align 4
  br label %153

149:                                              ; preds = %144, %141, %138
  br label %150

150:                                              ; preds = %149
  %151 = load i32, ptr %7, align 4
  %152 = add nsw i32 %151, 1
  store i32 %152, ptr %7, align 4
  br label %97

153:                                              ; preds = %148, %97
  br label %154

154:                                              ; preds = %153, %70
  br label %155

155:                                              ; preds = %154, %63
  br label %156

156:                                              ; preds = %155, %127, %93
  %157 = load i32, ptr %3, align 4
  ret i32 %157
}