; Function Attrs: nounwind uwtable
define i32 @H5T_get_order(ptr noundef %0) local_unnamed_addr #0 {
  br label %2

2:                                                ; preds = %2, %1
  %.028 = phi ptr [ %0, %1 ], [ %6, %2 ]
  %3 = getelementptr inbounds i8, ptr %.028, i64 40
  %4 = load ptr, ptr %3, align 8
  %5 = getelementptr inbounds i8, ptr %4, i64 32
  %6 = load ptr, ptr %5, align 8
  %.not = icmp eq ptr %6, null
  br i1 %.not, label %7, label %2

7:                                                ; preds = %2
  %8 = getelementptr inbounds i8, ptr %.028, i64 40
  %9 = getelementptr inbounds i8, ptr %4, i64 12
  %10 = load i32, ptr %9, align 4
  %.off = add i32 %10, -5
  %switch = icmp ult i32 %.off, 6
  br i1 %switch, label %14, label %11

11:                                               ; preds = %7
  %12 = getelementptr inbounds i8, ptr %4, i64 48
  %13 = load i32, ptr %12, align 8
  br label %.loopexit

14:                                               ; preds = %7
  %15 = icmp eq i32 %10, 6
  br i1 %15, label %16, label %.loopexit

16:                                               ; preds = %14
  %17 = tail call i32 @H5T_get_nmembers(ptr noundef nonnull %.028) #2
  %18 = icmp slt i32 %17, 0
  br i1 %18, label %19, label %.preheader

.preheader:                                       ; preds = %16
  %.not45 = icmp eq i32 %17, 0
  br i1 %.not45, label %.loopexit, label %.lr.ph.preheader

.lr.ph.preheader:                                 ; preds = %.preheader
  %wide.trip.count = zext nneg i32 %17 to i64
  br label %.lr.ph

19:                                               ; preds = %16
  %20 = load i64, ptr @H5E_ARGS_g, align 8
  %21 = load i64, ptr @H5E_BADTYPE_g, align 8
  %22 = tail call i32 (ptr, ptr, i32, i64, i64, ptr, ...) @H5E_printf_stack(ptr noundef nonnull @.str, ptr noundef nonnull @__func__.H5T_get_order, i32 noundef 131, i64 noundef %20, i64 noundef %21, ptr noundef nonnull @.str.5) #2
  br label %.loopexit

23:                                               ; preds = %35
  %indvars.iv.next = add nuw nsw i64 %indvars.iv, 1
  %exitcond.not = icmp eq i64 %indvars.iv.next, %wide.trip.count
  br i1 %exitcond.not, label %.loopexit, label %.lr.ph

.lr.ph:                                           ; preds = %.lr.ph.preheader, %23
  %indvars.iv = phi i64 [ 0, %.lr.ph.preheader ], [ %indvars.iv.next, %23 ]
  %.02941 = phi i32 [ 4, %.lr.ph.preheader ], [ %spec.select, %23 ]
  %24 = load ptr, ptr %8, align 8
  %25 = getelementptr inbounds i8, ptr %24, i64 64
  %26 = load ptr, ptr %25, align 8
  %27 = getelementptr inbounds %struct.H5T_cmemb_t, ptr %26, i64 %indvars.iv, i32 3
  %28 = load ptr, ptr %27, align 8
  %29 = tail call i32 @H5T_get_order(ptr noundef %28)
  %30 = icmp eq i32 %29, -1
  br i1 %30, label %31, label %35

31:                                               ; preds = %.lr.ph
  %32 = load i64, ptr @H5E_DATATYPE_g, align 8
  %33 = load i64, ptr @H5E_CANTGET_g, align 8
  %34 = tail call i32 (ptr, ptr, i32, i64, i64, ptr, ...) @H5E_printf_stack(ptr noundef nonnull @.str, ptr noundef nonnull @__func__.H5T_get_order, i32 noundef 138, i64 noundef %32, i64 noundef %33, ptr noundef nonnull @.str.6) #2
  br label %.loopexit

35:                                               ; preds = %.lr.ph
  %36 = icmp ne i32 %29, 4
  %37 = icmp eq i32 %.02941, 4
  %or.cond = select i1 %36, i1 %37, i1 false
  %spec.select = select i1 %or.cond, i32 %29, i32 %.02941
  %38 = icmp ne i32 %spec.select, 4
  %.not34 = icmp ne i32 %29, %spec.select
  %.not38 = and i1 %38, %.not34
  %or.cond35.not = select i1 %36, i1 %.not38, i1 false
  br i1 %or.cond35.not, label %.loopexit, label %23

.loopexit:                                        ; preds = %23, %35, %.preheader, %11, %14, %31, %19
  %.2 = phi i32 [ -1, %19 ], [ -1, %31 ], [ 4, %14 ], [ %13, %11 ], [ 4, %.preheader ], [ %spec.select, %23 ], [ 3, %35 ]
  ret i32 %.2
}